target datalayout = "e-m:e-p270:32:32-p271:32:32-p272:64:64-i64:64-i128:128-f80:128-n8:16:32:64-S128"
target triple = "x86_64-pc-linux-gnu"

; Function Attrs: nounwind uwtable
define internal i64 @read_number(ptr noundef %0) #0 {
  %2 = alloca i64, align 8
  %3 = alloca ptr, align 8
  %4 = alloca ptr, align 8
  %5 = alloca i32, align 4
  %6 = alloca i32, align 4
  store ptr %0, ptr %3, align 8, !tbaa !23
  call void @llvm.lifetime.start.p0(i64 8, ptr %4) #5
  %7 = load ptr, ptr %3, align 8, !tbaa !23
  %8 = load ptr, ptr %7, align 8, !tbaa !19
  store ptr %8, ptr %4, align 8, !tbaa !19
  call void @llvm.lifetime.start.p0(i64 4, ptr %5) #5
  store i32 0, ptr %5, align 4, !tbaa !25
  br label %9

9:                                                ; preds = %15, %1
  %10 = load ptr, ptr %3, align 8, !tbaa !23
  %11 = load ptr, ptr %10, align 8, !tbaa !19
  %12 = load i8, ptr %11, align 1, !tbaa !21
  %13 = sext i8 %12 to i32
  %14 = icmp eq i32 %13, 48
  br i1 %14, label %15, label %19

15:                                               ; preds = %9
  %16 = load ptr, ptr %3, align 8, !tbaa !23
  %17 = load ptr, ptr %16, align 8, !tbaa !19
  %18 = getelementptr inbounds nuw i8, ptr %17, i32 1
  store ptr %18, ptr %16, align 8, !tbaa !19
  br label %9

19:                                               ; preds = %9
  br label %20

20:                                               ; preds = %34, %19
  %21 = load ptr, ptr %3, align 8, !tbaa !23
  %22 = load ptr, ptr %21, align 8, !tbaa !19
  %23 = load i8, ptr %22, align 1, !tbaa !21
  %24 = sext i8 %23 to i32
  %25 = icmp sge i32 %24, 48
  br i1 %25, label %26, label %32

26:                                               ; preds = %20
  %27 = load ptr, ptr %3, align 8, !tbaa !23
  %28 = load ptr, ptr %27, align 8, !tbaa !19
  %29 = load i8, ptr %28, align 1, !tbaa !21
  %30 = sext i8 %29 to i32
  %31 = icmp sle i32 %30, 57
  br label %32

32:                                               ; preds = %26, %20
  %33 = phi i1 [ false, %20 ], [ %31, %26 ]
  br i1 %33, label %34, label %47

34:                                               ; preds = %32
  %35 = load i32, ptr %5, align 4, !tbaa !25
  %36 = mul i32 %35, 10
  store i32 %36, ptr %5, align 4, !tbaa !25
  %37 = load ptr, ptr %3, align 8, !tbaa !23
  %38 = load ptr, ptr %37, align 8, !tbaa !19
  %39 = load i8, ptr %38, align 1, !tbaa !21
  %40 = sext i8 %39 to i32
  %41 = sub i32 %40, 48
  %42 = load i32, ptr %5, align 4, !tbaa !25
  %43 = add i32 %42, %41
  store i32 %43, ptr %5, align 4, !tbaa !25
  %44 = load ptr, ptr %3, align 8, !tbaa !23
  %45 = load ptr, ptr %44, align 8, !tbaa !19
  %46 = getelementptr inbounds nuw i8, ptr %45, i32 1
  store ptr %46, ptr %44, align 8, !tbaa !19
  br label %20

47:                                               ; preds = %32
  %48 = load ptr, ptr %4, align 8, !tbaa !19
  %49 = load ptr, ptr %3, align 8, !tbaa !23
  %50 = load ptr, ptr %49, align 8, !tbaa !19
  %51 = icmp eq ptr %48, %50
  br i1 %51, label %52, label %53

52:                                               ; preds = %47
  store i64 -9999999, ptr %2, align 8
  store i32 1, ptr %6, align 4
  br label %56

53:                                               ; preds = %47
  %54 = load i32, ptr %5, align 4, !tbaa !25
  %55 = sext i32 %54 to i64
  store i64 %55, ptr %2, align 8
  store i32 1, ptr %6, align 4
  br label %56

56:                                               ; preds = %53, %52
  call void @llvm.lifetime.end.p0(i64 4, ptr %5) #5
  call void @llvm.lifetime.end.p0(i64 8, ptr %4) #5
  %57 = load i64, ptr %2, align 8
  ret i64 %57
}

; Function Attrs: nounwind uwtable
define internal i32 @read_sign(ptr noundef %0) #0 {
  %2 = alloca ptr, align 8
  %3 = alloca i32, align 4
  store ptr %0, ptr %2, align 8, !tbaa !23
  call void @llvm.lifetime.start.p0(i64 4, ptr %3) #5
  store i32 1, ptr %3, align 4, !tbaa !25
  %4 = load ptr, ptr %2, align 8, !tbaa !23
  %5 = load ptr, ptr %4, align 8, !tbaa !19
  %6 = load i8, ptr %5, align 1, !tbaa !21
  %7 = sext i8 %6 to i32
  %8 = icmp eq i32 %7, 43
  br i1 %8, label %9, label %13

9:                                                ; preds = %1
  %10 = load ptr, ptr %2, align 8, !tbaa !23
  %11 = load ptr, ptr %10, align 8, !tbaa !19
  %12 = getelementptr inbounds nuw i8, ptr %11, i32 1
  store ptr %12, ptr %10, align 8, !tbaa !19
  br label %24

13:                                               ; preds = %1
  %14 = load ptr, ptr %2, align 8, !tbaa !23
  %15 = load ptr, ptr %14, align 8, !tbaa !19
  %16 = load i8, ptr %15, align 1, !tbaa !21
  %17 = sext i8 %16 to i32
  %18 = icmp eq i32 %17, 45
  br i1 %18, label %19, label %23

19:                                               ; preds = %13
  store i32 -1, ptr %3, align 4, !tbaa !25
  %20 = load ptr, ptr %2, align 8, !tbaa !23
  %21 = load ptr, ptr %20, align 8, !tbaa !19
  %22 = getelementptr inbounds nuw i8, ptr %21, i32 1
  store ptr %22, ptr %20, align 8, !tbaa !19
  br label %23

23:                                               ; preds = %19, %13
  br label %24

24:                                               ; preds = %23, %9
  %25 = load i32, ptr %3, align 4, !tbaa !25
  call void @llvm.lifetime.end.p0(i64 4, ptr %3) #5
  ret i32 %25
}

; Function Attrs: nounwind uwtable
define internal i64 @read_offset(ptr noundef %0) #0 {
  %2 = alloca i64, align 8
  %3 = alloca ptr, align 8
  %4 = alloca ptr, align 8
  %5 = alloca i32, align 4
  %6 = alloca i32, align 4
  %7 = alloca i32, align 4
  %8 = alloca i32, align 4
  %9 = alloca i32, align 4
  store ptr %0, ptr %3, align 8, !tbaa !23
  call void @llvm.lifetime.start.p0(i64 8, ptr %4) #5
  call void @llvm.lifetime.start.p0(i64 4, ptr %5) #5
  %10 = load ptr, ptr %3, align 8, !tbaa !23
  %11 = call i32 @read_sign(ptr noundef %10)
  store i32 %11, ptr %5, align 4, !tbaa !25
  call void @llvm.lifetime.start.p0(i64 4, ptr %6) #5
  store i32 0, ptr %6, align 4, !tbaa !25
  call void @llvm.lifetime.start.p0(i64 4, ptr %7) #5
  store i32 0, ptr %7, align 4, !tbaa !25
  call void @llvm.lifetime.start.p0(i64 4, ptr %8) #5
  store i32 0, ptr %8, align 4, !tbaa !25
  %12 = load ptr, ptr %3, align 8, !tbaa !23
  %13 = load ptr, ptr %12, align 8, !tbaa !19
  store ptr %13, ptr %4, align 8, !tbaa !19
  %14 = load ptr, ptr %3, align 8, !tbaa !23
  %15 = call i64 @read_number(ptr noundef %14)
  %16 = trunc i64 %15 to i32
  store i32 %16, ptr %6, align 4, !tbaa !25
  %17 = load i32, ptr %6, align 4, !tbaa !25
  %18 = icmp eq i32 %17, -9999999
  br i1 %18, label %19, label %22

19:                                               ; preds = %1
  %20 = load i32, ptr %6, align 4, !tbaa !25
  %21 = sext i32 %20 to i64
  store i64 %21, ptr %2, align 8
  store i32 1, ptr %9, align 4
  br label %78

22:                                               ; preds = %1
  %23 = load ptr, ptr %3, align 8, !tbaa !23
  %24 = load ptr, ptr %23, align 8, !tbaa !19
  %25 = load i8, ptr %24, align 1, !tbaa !21
  %26 = sext i8 %25 to i32
  %27 = icmp eq i32 %26, 58
  br i1 %27, label %28, label %41

28:                                               ; preds = %22
  %29 = load ptr, ptr %3, align 8, !tbaa !23
  %30 = load ptr, ptr %29, align 8, !tbaa !19
  %31 = getelementptr inbounds nuw i8, ptr %30, i32 1
  store ptr %31, ptr %29, align 8, !tbaa !19
  %32 = load ptr, ptr %3, align 8, !tbaa !23
  %33 = call i64 @read_number(ptr noundef %32)
  %34 = trunc i64 %33 to i32
  store i32 %34, ptr %7, align 4, !tbaa !25
  %35 = load i32, ptr %7, align 4, !tbaa !25
  %36 = icmp eq i32 %35, -9999999
  br i1 %36, label %37, label %40

37:                                               ; preds = %28
  %38 = load i32, ptr %7, align 4, !tbaa !25
  %39 = sext i32 %38 to i64
  store i64 %39, ptr %2, align 8
  store i32 1, ptr %9, align 4
  br label %78

40:                                               ; preds = %28
  br label %41

41:                                               ; preds = %40, %22
  %42 = load ptr, ptr %3, align 8, !tbaa !23
  %43 = load ptr, ptr %42, align 8, !tbaa !19
  %44 = load i8, ptr %43, align 1, !tbaa !21
  %45 = sext i8 %44 to i32
  %46 = icmp eq i32 %45, 58
  br i1 %46, label %47, label %60

47:                                               ; preds = %41
  %48 = load ptr, ptr %3, align 8, !tbaa !23
  %49 = load ptr, ptr %48, align 8, !tbaa !19
  %50 = getelementptr inbounds nuw i8, ptr %49, i32 1
  store ptr %50, ptr %48, align 8, !tbaa !19
  %51 = load ptr, ptr %3, align 8, !tbaa !23
  %52 = call i64 @read_number(ptr noundef %51)
  %53 = trunc i64 %52 to i32
  store i32 %53, ptr %8, align 4, !tbaa !25
  %54 = load i32, ptr %8, align 4, !tbaa !25
  %55 = icmp eq i32 %54, -9999999
  br i1 %55, label %56, label %59

56:                                               ; preds = %47
  %57 = load i32, ptr %8, align 4, !tbaa !25
  %58 = sext i32 %57 to i64
  store i64 %58, ptr %2, align 8
  store i32 1, ptr %9, align 4
  br label %78

59:                                               ; preds = %47
  br label %60

60:                                               ; preds = %59, %41
  %61 = load ptr, ptr %4, align 8, !tbaa !19
  %62 = load ptr, ptr %3, align 8, !tbaa !23
  %63 = load ptr, ptr %62, align 8, !tbaa !19
  %64 = icmp eq ptr %61, %63
  br i1 %64, label %65, label %66

65:                                               ; preds = %60
  store i64 -9999999, ptr %2, align 8
  store i32 1, ptr %9, align 4
  br label %78

66:                                               ; preds = %60
  %67 = load i32, ptr %5, align 4, !tbaa !25
  %68 = mul i32 -1, %67
  %69 = load i32, ptr %6, align 4, !tbaa !25
  %70 = mul i32 %69, 3600
  %71 = load i32, ptr %7, align 4, !tbaa !25
  %72 = mul i32 %71, 60
  %73 = add i32 %70, %72
  %74 = load i32, ptr %8, align 4, !tbaa !25
  %75 = add i32 %73, %74
  %76 = mul i32 %68, %75
  %77 = sext i32 %76 to i64
  store i64 %77, ptr %2, align 8
  store i32 1, ptr %9, align 4
  br label %78

78:                                               ; preds = %66, %65, %56, %37, %19
  call void @llvm.lifetime.end.p0(i64 4, ptr %8) #5
  call void @llvm.lifetime.end.p0(i64 4, ptr %7) #5
  call void @llvm.lifetime.end.p0(i64 4, ptr %6) #5
  call void @llvm.lifetime.end.p0(i64 4, ptr %5) #5
  call void @llvm.lifetime.end.p0(i64 8, ptr %4) #5
  %79 = load i64, ptr %2, align 8
  ret i64 %79
}