; Function Attrs: nofree norecurse nosync nounwind memory(read, argmem: readwrite, inaccessiblemem: none) uwtable
define internal fastcc range(i64 -2147483648, 2147483648) i64 @read_offset(ptr noundef nonnull captures(none) %0) unnamed_addr #4 {
  %2 = load ptr, ptr %0, align 8, !tbaa !16
  %3 = load i8, ptr %2, align 1, !tbaa !17
  switch i8 %3, label %read_sign.exit [
    i8 43, label %.sink.split.i
    i8 45, label %4
  ]

4:                                                ; preds = %1
  br label %.sink.split.i

.sink.split.i:                                    ; preds = %4, %1
  %.0.ph.i = phi i32 [ -1, %4 ], [ 1, %1 ]
  %5 = getelementptr inbounds nuw i8, ptr %2, i64 1
  store ptr %5, ptr %0, align 8, !tbaa !16
  %.pre = load i8, ptr %5, align 1, !tbaa !17
  br label %read_sign.exit

read_sign.exit:                                   ; preds = %1, %.sink.split.i
  %6 = phi i8 [ %3, %1 ], [ %.pre, %.sink.split.i ]
  %7 = phi ptr [ %2, %1 ], [ %5, %.sink.split.i ]
  %.0.i = phi i32 [ 1, %1 ], [ %.0.ph.i, %.sink.split.i ]
  %8 = icmp eq i8 %6, 48
  br i1 %8, label %.lr.ph.i, label %.preheader.i

.preheader.i:                                     ; preds = %.lr.ph.i, %read_sign.exit
  %9 = phi i8 [ %6, %read_sign.exit ], [ %13, %.lr.ph.i ]
  %.promoted14.i = phi ptr [ %7, %read_sign.exit ], [ %12, %.lr.ph.i ]
  %10 = add i8 %9, -48
  %or.cond15.i = icmp ult i8 %10, 10
  br i1 %or.cond15.i, label %.lr.ph17.i, label %read_number.exit

.lr.ph.i:                                         ; preds = %read_sign.exit, %.lr.ph.i
  %11 = phi ptr [ %12, %.lr.ph.i ], [ %7, %read_sign.exit ]
  %12 = getelementptr inbounds nuw i8, ptr %11, i64 1
  store ptr %12, ptr %0, align 8, !tbaa !16
  %13 = load i8, ptr %12, align 1, !tbaa !17
  %14 = icmp eq i8 %13, 48
  br i1 %14, label %.lr.ph.i, label %.preheader.i

.lr.ph17.i:                                       ; preds = %.preheader.i, %.lr.ph17.i
  %15 = phi i8 [ %21, %.lr.ph17.i ], [ %9, %.preheader.i ]
  %.016.i = phi i32 [ %19, %.lr.ph17.i ], [ 0, %.preheader.i ]
  %16 = phi ptr [ %20, %.lr.ph17.i ], [ %.promoted14.i, %.preheader.i ]
  %17 = mul i32 %.016.i, 10
  %narrow.i = add nsw i8 %15, -48
  %18 = zext nneg i8 %narrow.i to i32
  %19 = add i32 %17, %18
  %20 = getelementptr inbounds nuw i8, ptr %16, i64 1
  store ptr %20, ptr %0, align 8, !tbaa !16
  %21 = load i8, ptr %20, align 1, !tbaa !17
  %22 = add i8 %21, -48
  %or.cond.i = icmp ult i8 %22, 10
  br i1 %or.cond.i, label %.lr.ph17.i, label %read_number.exit

read_number.exit:                                 ; preds = %.lr.ph17.i, %.preheader.i
  %23 = phi i8 [ %9, %.preheader.i ], [ %21, %.lr.ph17.i ]
  %.0.lcssa.i = phi i32 [ 0, %.preheader.i ], [ %19, %.lr.ph17.i ]
  %24 = phi ptr [ %.promoted14.i, %.preheader.i ], [ %20, %.lr.ph17.i ]
  %25 = icmp eq ptr %7, %24
  %26 = icmp eq i32 %.0.lcssa.i, -9999999
  %27 = select i1 %25, i1 true, i1 %26
  br i1 %27, label %73, label %28

28:                                               ; preds = %read_number.exit
  %29 = icmp eq i8 %23, 58
  br i1 %29, label %30, label %.thread

30:                                               ; preds = %28
  %.ptr63 = getelementptr inbounds nuw i8, ptr %24, i64 1
  store ptr %.ptr63, ptr %0, align 8, !tbaa !16
  %31 = load i8, ptr %.ptr63, align 1, !tbaa !17
  %32 = icmp eq i8 %31, 48
  br i1 %32, label %.lr.ph.i43, label %.preheader.i32

.preheader.i32.loopexit:                          ; preds = %.lr.ph.i43
  %.ptr62.le = getelementptr inbounds nuw i8, ptr %24, i64 %.add59
  br label %.preheader.i32

.preheader.i32:                                   ; preds = %.preheader.i32.loopexit, %30
  %33 = phi ptr [ %.ptr63, %30 ], [ %.ptr62.le, %.preheader.i32.loopexit ]
  %34 = phi i8 [ %31, %30 ], [ %36, %.preheader.i32.loopexit ]
  %.promoted14.i33.idx = phi i64 [ 1, %30 ], [ %.add59, %.preheader.i32.loopexit ]
  %35 = add i8 %34, -48
  %or.cond15.i34 = icmp ult i8 %35, 10
  br i1 %or.cond15.i34, label %.lr.ph17.i38, label %read_number.exit44

.lr.ph.i43:                                       ; preds = %30, %.lr.ph.i43
  %.idx58 = phi i64 [ %.add59, %.lr.ph.i43 ], [ 1, %30 ]
  %.add59 = add nuw nsw i64 %.idx58, 1
  %.ptr62 = getelementptr inbounds nuw i8, ptr %24, i64 %.add59
  store ptr %.ptr62, ptr %0, align 8, !tbaa !16
  %36 = load i8, ptr %.ptr62, align 1, !tbaa !17
  %37 = icmp eq i8 %36, 48
  br i1 %37, label %.lr.ph.i43, label %.preheader.i32.loopexit

.lr.ph17.i38:                                     ; preds = %.preheader.i32, %.lr.ph17.i38
  %38 = phi i8 [ %42, %.lr.ph17.i38 ], [ %34, %.preheader.i32 ]
  %.016.i39 = phi i32 [ %41, %.lr.ph17.i38 ], [ 0, %.preheader.i32 ]
  %.idx = phi i64 [ %.add, %.lr.ph17.i38 ], [ %.promoted14.i33.idx, %.preheader.i32 ]
  %39 = mul i32 %.016.i39, 10
  %narrow.i40 = add nsw i8 %38, -48
  %40 = zext nneg i8 %narrow.i40 to i32
  %41 = add i32 %39, %40
  %.add = add nuw nsw i64 %.idx, 1
  %.ptr60 = getelementptr inbounds nuw i8, ptr %24, i64 %.add
  store ptr %.ptr60, ptr %0, align 8, !tbaa !16
  %42 = load i8, ptr %.ptr60, align 1, !tbaa !17
  %43 = add i8 %42, -48
  %or.cond.i41 = icmp ult i8 %43, 10
  br i1 %or.cond.i41, label %.lr.ph17.i38, label %read_number.exit44.loopexit

read_number.exit44.loopexit:                      ; preds = %.lr.ph17.i38
  %.ptr60.le = getelementptr inbounds nuw i8, ptr %24, i64 %.add
  br label %read_number.exit44

read_number.exit44:                               ; preds = %read_number.exit44.loopexit, %.preheader.i32
  %44 = phi i8 [ %34, %.preheader.i32 ], [ %42, %read_number.exit44.loopexit ]
  %45 = phi ptr [ %33, %.preheader.i32 ], [ %.ptr60.le, %read_number.exit44.loopexit ]
  %.0.lcssa.i35 = phi i32 [ 0, %.preheader.i32 ], [ %41, %read_number.exit44.loopexit ]
  %.lcssa.i36.idx = phi i64 [ %.promoted14.i33.idx, %.preheader.i32 ], [ %.add, %read_number.exit44.loopexit ]
  %46 = icmp eq i64 %.lcssa.i36.idx, 1
  %47 = icmp eq i32 %.0.lcssa.i35, -9999999
  %48 = select i1 %46, i1 true, i1 %47
  br i1 %48, label %73, label %49

49:                                               ; preds = %read_number.exit44
  %50 = icmp eq i8 %44, 58
  br i1 %50, label %51, label %.thread

51:                                               ; preds = %49
  %.ptr71 = getelementptr inbounds nuw i8, ptr %45, i64 1
  store ptr %.ptr71, ptr %0, align 8, !tbaa !16
  %52 = load i8, ptr %.ptr71, align 1, !tbaa !17
  %53 = icmp eq i8 %52, 48
  br i1 %53, label %.lr.ph.i56, label %.preheader.i45

.preheader.i45.loopexit:                          ; preds = %.lr.ph.i56
  %.ptr70.le = getelementptr inbounds nuw i8, ptr %45, i64 %.add67
  br label %.preheader.i45

.preheader.i45:                                   ; preds = %.preheader.i45.loopexit, %51
  %54 = phi ptr [ %.ptr71, %51 ], [ %.ptr70.le, %.preheader.i45.loopexit ]
  %55 = phi i8 [ %52, %51 ], [ %57, %.preheader.i45.loopexit ]
  %.promoted14.i46.idx = phi i64 [ 1, %51 ], [ %.add67, %.preheader.i45.loopexit ]
  %56 = add i8 %55, -48
  %or.cond15.i47 = icmp ult i8 %56, 10
  br i1 %or.cond15.i47, label %.lr.ph17.i51, label %read_number.exit57

.lr.ph.i56:                                       ; preds = %51, %.lr.ph.i56
  %.idx65 = phi i64 [ %.add67, %.lr.ph.i56 ], [ 1, %51 ]
  %.add67 = add nuw nsw i64 %.idx65, 1
  %.ptr70 = getelementptr inbounds nuw i8, ptr %45, i64 %.add67
  store ptr %.ptr70, ptr %0, align 8, !tbaa !16
  %57 = load i8, ptr %.ptr70, align 1, !tbaa !17
  %58 = icmp eq i8 %57, 48
  br i1 %58, label %.lr.ph.i56, label %.preheader.i45.loopexit

.lr.ph17.i51:                                     ; preds = %.preheader.i45, %.lr.ph17.i51
  %59 = phi i8 [ %63, %.lr.ph17.i51 ], [ %55, %.preheader.i45 ]
  %.016.i52 = phi i32 [ %62, %.lr.ph17.i51 ], [ 0, %.preheader.i45 ]
  %.idx64 = phi i64 [ %.add66, %.lr.ph17.i51 ], [ %.promoted14.i46.idx, %.preheader.i45 ]
  %60 = mul i32 %.016.i52, 10
  %narrow.i53 = add nsw i8 %59, -48
  %61 = zext nneg i8 %narrow.i53 to i32
  %62 = add i32 %60, %61
  %.add66 = add nuw nsw i64 %.idx64, 1
  %.ptr68 = getelementptr inbounds nuw i8, ptr %45, i64 %.add66
  store ptr %.ptr68, ptr %0, align 8, !tbaa !16
  %63 = load i8, ptr %.ptr68, align 1, !tbaa !17
  %64 = add i8 %63, -48
  %or.cond.i54 = icmp ult i8 %64, 10
  br i1 %or.cond.i54, label %.lr.ph17.i51, label %read_number.exit57.loopexit

read_number.exit57.loopexit:                      ; preds = %.lr.ph17.i51
  %.ptr68.le = getelementptr inbounds nuw i8, ptr %45, i64 %.add66
  br label %read_number.exit57

read_number.exit57:                               ; preds = %read_number.exit57.loopexit, %.preheader.i45
  %65 = phi ptr [ %54, %.preheader.i45 ], [ %.ptr68.le, %read_number.exit57.loopexit ]
  %.0.lcssa.i48 = phi i32 [ 0, %.preheader.i45 ], [ %62, %read_number.exit57.loopexit ]
  %.lcssa.i49.idx = phi i64 [ %.promoted14.i46.idx, %.preheader.i45 ], [ %.add66, %read_number.exit57.loopexit ]
  %66 = icmp eq i64 %.lcssa.i49.idx, 1
  %67 = icmp eq i32 %.0.lcssa.i48, -9999999
  %68 = select i1 %66, i1 true, i1 %67
  br i1 %68, label %73, label %.thread

.thread:                                          ; preds = %28, %read_number.exit57, %49
  %.02187 = phi i32 [ %.0.lcssa.i35, %read_number.exit57 ], [ %.0.lcssa.i35, %49 ], [ 0, %28 ]
  %69 = phi ptr [ %65, %read_number.exit57 ], [ %45, %49 ], [ %24, %28 ]
  %.0 = phi i32 [ %.0.lcssa.i48, %read_number.exit57 ], [ 0, %49 ], [ 0, %28 ]
  %70 = icmp eq ptr %7, %69
  br i1 %70, label %73, label %71

71:                                               ; preds = %.thread
  %.neg = mul i32 %.0.lcssa.i, -3600
  %.neg28 = mul i32 %.02187, -60
  %.neg29 = add i32 %.neg28, %.neg
  %.neg30 = sub i32 %.neg29, %.0
  %.neg31 = mul i32 %.neg30, %.0.i
  %72 = sext i32 %.neg31 to i64
  br label %73

73:                                               ; preds = %.thread, %read_number.exit57, %read_number.exit44, %read_number.exit, %71
  %.022 = phi i64 [ %72, %71 ], [ -9999999, %read_number.exit ], [ -9999999, %read_number.exit44 ], [ -9999999, %read_number.exit57 ], [ -9999999, %.thread ]
  ret i64 %.022
}